; Function Attrs: nounwind uwtable
define ptr @l_Lean_IR_EmitC_argToCString(ptr noundef %0) local_unnamed_addr #0 {
  %2 = ptrtoint ptr %0 to i64
  %3 = and i64 %2, 1
  %.not.i14 = icmp eq i64 %3, 0
  br i1 %.not.i14, label %7, label %4

4:                                                ; preds = %1
  %5 = lshr i64 %2, 1
  %6 = trunc i64 %5 to i32
  br label %lean_obj_tag.exit

7:                                                ; preds = %1
  %8 = getelementptr i8, ptr %0, i64 4
  %.val.i = load i32, ptr %8, align 4
  %9 = lshr i32 %.val.i, 24
  br label %lean_obj_tag.exit

lean_obj_tag.exit:                                ; preds = %4, %7
  %.0.i = phi i32 [ %6, %4 ], [ %9, %7 ]
  %10 = icmp eq i32 %.0.i, 0
  br i1 %10, label %11, label %41

11:                                               ; preds = %lean_obj_tag.exit
  %12 = getelementptr inbounds nuw i8, ptr %0, i64 8
  %13 = load ptr, ptr %12, align 8, !tbaa !4
  %14 = ptrtoint ptr %13 to i64
  %15 = and i64 %14, 1
  %.not = icmp eq i64 %15, 0
  br i1 %.not, label %16, label %lean_inc.exit

16:                                               ; preds = %11
  %.val.i15 = load i32, ptr %13, align 4, !tbaa !8
  %17 = icmp sgt i32 %.val.i15, 0
  br i1 %17, label %18, label %20, !prof !11

18:                                               ; preds = %16
  %19 = add nuw i32 %.val.i15, 1
  store i32 %19, ptr %13, align 4, !tbaa !8
  br label %lean_inc.exit

20:                                               ; preds = %16
  %.not.i16 = icmp eq i32 %.val.i15, 0
  br i1 %.not.i16, label %lean_inc.exit, label %21

21:                                               ; preds = %20
  tail call void @lean_inc_ref_cold(ptr noundef nonnull %13) #5
  br label %lean_inc.exit

lean_inc.exit:                                    ; preds = %21, %20, %18, %11
  br i1 %.not.i14, label %22, label %lean_dec.exit11

22:                                               ; preds = %lean_inc.exit
  %23 = load i32, ptr %0, align 4, !tbaa !8
  %24 = icmp sgt i32 %23, 1
  br i1 %24, label %25, label %27, !prof !11

25:                                               ; preds = %22
  %26 = add nsw i32 %23, -1
  store i32 %26, ptr %0, align 4, !tbaa !8
  br label %lean_dec.exit11

27:                                               ; preds = %22
  %.not.i = icmp eq i32 %23, 0
  br i1 %.not.i, label %lean_dec.exit11, label %28

28:                                               ; preds = %27
  tail call void @lean_dec_ref_cold(ptr noundef nonnull %0) #5
  br label %lean_dec.exit11

lean_dec.exit11:                                  ; preds = %28, %27, %25, %lean_inc.exit
  %29 = tail call ptr @l___private_Init_Data_Repr_0__Nat_reprFast(ptr noundef %13) #5
  %30 = load ptr, ptr @l_Lean_IR_EmitC_argToCString___closed__1, align 8, !tbaa !4
  %31 = tail call ptr @lean_string_append(ptr noundef %30, ptr noundef %29) #5
  %32 = ptrtoint ptr %29 to i64
  %33 = and i64 %32, 1
  %.not18 = icmp eq i64 %33, 0
  br i1 %.not18, label %34, label %lean_dec.exit

34:                                               ; preds = %lean_dec.exit11
  %35 = load i32, ptr %29, align 4, !tbaa !8
  %36 = icmp sgt i32 %35, 1
  br i1 %36, label %37, label %39, !prof !11

37:                                               ; preds = %34
  %38 = add nsw i32 %35, -1
  store i32 %38, ptr %29, align 4, !tbaa !8
  br label %lean_dec.exit

39:                                               ; preds = %34
  %.not.i12 = icmp eq i32 %35, 0
  br i1 %.not.i12, label %lean_dec.exit, label %40

40:                                               ; preds = %39
  tail call void @lean_dec_ref_cold(ptr noundef nonnull %29) #5
  br label %lean_dec.exit

41:                                               ; preds = %lean_obj_tag.exit
  %42 = load ptr, ptr @l_Lean_IR_EmitC_argToCString___closed__2, align 8, !tbaa !4
  br label %lean_dec.exit

lean_dec.exit:                                    ; preds = %lean_dec.exit11, %37, %39, %40, %41
  %.0 = phi ptr [ %42, %41 ], [ %31, %40 ], [ %31, %39 ], [ %31, %37 ], [ %31, %lean_dec.exit11 ]
  ret ptr %.0
}